target datalayout = "e-m:e-p270:32:32-p271:32:32-p272:64:64-i64:64-i128:128-f80:128-n8:16:32:64-S128"
target triple = "x86_64-pc-linux-gnu"

@.str.30 = private unnamed_addr constant [5 x i8] c"true\00", align 1
@.str.31 = private unnamed_addr constant [6 x i8] c"false\00", align 1
@.str.32 = private unnamed_addr constant [54 x i8] c"msxml_parse_value: no memory for json value for [%s]\0A\00", align 1

; Function Attrs: nounwind uwtable
define internal i32 @msxml_is_int(ptr noundef %0, i64 noundef %1, ptr noundef %2) #0 {
  %4 = alloca i32, align 4
  %5 = alloca ptr, align 8
  %6 = alloca i64, align 8
  %7 = alloca ptr, align 8
  %8 = alloca i64, align 8
  %9 = alloca ptr, align 8
  store ptr %0, ptr %5, align 8
  store i64 %1, ptr %6, align 8
  store ptr %2, ptr %7, align 8
  store ptr null, ptr %9, align 8
  %10 = load ptr, ptr %5, align 8
  %11 = call i64 @strtol(ptr noundef %10, ptr noundef %9, i32 noundef 10) #5
  store i64 %11, ptr %8, align 8
  %12 = load ptr, ptr %9, align 8
  %13 = load ptr, ptr %5, align 8
  %14 = load i64, ptr %6, align 8
  %15 = getelementptr inbounds i8, ptr %13, i64 %14
  %16 = icmp ne ptr %12, %15
  br i1 %16, label %17, label %18

17:                                               ; preds = %3
  store i32 0, ptr %4, align 4
  br label %23

18:                                               ; preds = %3
  %19 = load i64, ptr %8, align 8
  %20 = and i64 %19, 65535
  %21 = trunc i64 %20 to i32
  %22 = load ptr, ptr %7, align 8
  store i32 %21, ptr %22, align 4
  store i32 1, ptr %4, align 4
  br label %23

23:                                               ; preds = %18, %17
  %24 = load i32, ptr %4, align 4
  ret i32 %24
}

; Function Attrs: nounwind uwtable
define internal i32 @msxml_parse_value(ptr noundef %0, ptr noundef %1, ptr noundef %2) #0 {
  %4 = alloca i32, align 4
  %5 = alloca ptr, align 8
  %6 = alloca ptr, align 8
  %7 = alloca ptr, align 8
  %8 = alloca ptr, align 8
  %9 = alloca ptr, align 8
  %10 = alloca i32, align 4
  store ptr %0, ptr %5, align 8
  store ptr %1, ptr %6, align 8
  store ptr %2, ptr %7, align 8
  %11 = load ptr, ptr %5, align 8
  %12 = icmp ne ptr %11, null
  br i1 %12, label %14, label %13

13:                                               ; preds = %3
  store i32 2, ptr %4, align 4
  br label %57

14:                                               ; preds = %3
  %15 = load ptr, ptr %5, align 8
  %16 = load ptr, ptr %6, align 8
  %17 = call ptr @cli_jsonarray(ptr noundef %15, ptr noundef %16)
  store ptr %17, ptr %9, align 8
  %18 = load ptr, ptr %9, align 8
  %19 = icmp eq ptr %18, null
  br i1 %19, label %20, label %21

20:                                               ; preds = %14
  store i32 20, ptr %4, align 4
  br label %57

21:                                               ; preds = %14
  %22 = load ptr, ptr %7, align 8
  %23 = load ptr, ptr %7, align 8
  %24 = call i32 @xmlStrlen(ptr noundef %23)
  %25 = sext i32 %24 to i64
  %26 = call i32 @msxml_is_int(ptr noundef %22, i64 noundef %25, ptr noundef %10)
  %27 = icmp ne i32 %26, 0
  br i1 %27, label %28, label %31

28:                                               ; preds = %21
  %29 = load i32, ptr %10, align 4
  %30 = call ptr @json_object_new_int(i32 noundef %29)
  store ptr %30, ptr %8, align 8
  br label %48

31:                                               ; preds = %21
  %32 = load ptr, ptr %7, align 8
  %33 = call i32 @xmlStrcmp(ptr noundef %32, ptr noundef @.str.30)
  %34 = icmp ne i32 %33, 0
  br i1 %34, label %37, label %35

35:                                               ; preds = %31
  %36 = call ptr @json_object_new_boolean(i32 noundef 1)
  store ptr %36, ptr %8, align 8
  br label %47

37:                                               ; preds = %31
  %38 = load ptr, ptr %7, align 8
  %39 = call i32 @xmlStrcmp(ptr noundef %38, ptr noundef @.str.31)
  %40 = icmp ne i32 %39, 0
  br i1 %40, label %43, label %41

41:                                               ; preds = %37
  %42 = call ptr @json_object_new_boolean(i32 noundef 0)
  store ptr %42, ptr %8, align 8
  br label %46

43:                                               ; preds = %37
  %44 = load ptr, ptr %7, align 8
  %45 = call ptr @json_object_new_string(ptr noundef %44)
  store ptr %45, ptr %8, align 8
  br label %46

46:                                               ; preds = %43, %41
  br label %47

47:                                               ; preds = %46, %35
  br label %48

48:                                               ; preds = %47, %28
  %49 = load ptr, ptr %8, align 8
  %50 = icmp eq ptr null, %49
  br i1 %50, label %51, label %53

51:                                               ; preds = %48
  %52 = load ptr, ptr %6, align 8
  call void (ptr, ...) @cli_errmsg(ptr noundef @.str.32, ptr noundef %52)
  store i32 20, ptr %4, align 4
  br label %57

53:                                               ; preds = %48
  %54 = load ptr, ptr %9, align 8
  %55 = load ptr, ptr %8, align 8
  %56 = call i32 @json_object_array_add(ptr noundef %54, ptr noundef %55)
  store i32 0, ptr %4, align 4
  br label %57

57:                                               ; preds = %53, %51, %20, %13
  %58 = load i32, ptr %4, align 4
  ret i32 %58
}