; Function Attrs: nounwind uwtable
define internal fastcc noundef i32 @msxml_parse_value(ptr noundef %0, ptr noundef %1) unnamed_addr #0 {
  %3 = alloca ptr, align 8
  %4 = tail call ptr @cli_jsonarray(ptr noundef %0, ptr noundef nonnull @.str.21) #8
  %5 = icmp eq ptr %4, null
  br i1 %5, label %31, label %6

6:                                                ; preds = %2
  %7 = tail call i32 @xmlStrlen(ptr noundef %1) #8
  %8 = sext i32 %7 to i64
  call void @llvm.lifetime.start.p0(i64 8, ptr nonnull %3)
  store ptr null, ptr %3, align 8
  %9 = call i64 @strtol(ptr noundef %1, ptr noundef nonnull %3, i32 noundef 10) #8
  %10 = load ptr, ptr %3, align 8
  %11 = getelementptr inbounds i8, ptr %1, i64 %8
  %.not.i = icmp eq ptr %10, %11
  br i1 %.not.i, label %12, label %16

12:                                               ; preds = %6
  %13 = trunc i64 %9 to i32
  %14 = and i32 %13, 65535
  call void @llvm.lifetime.end.p0(i64 8, ptr nonnull %3)
  %15 = tail call ptr @json_object_new_int(i32 noundef %14) #8
  br label %26

16:                                               ; preds = %6
  call void @llvm.lifetime.end.p0(i64 8, ptr nonnull %3)
  %17 = tail call i32 @xmlStrcmp(ptr noundef %1, ptr noundef nonnull @.str.30) #8
  %.not16 = icmp eq i32 %17, 0
  br i1 %.not16, label %18, label %20

18:                                               ; preds = %16
  %19 = tail call ptr @json_object_new_boolean(i32 noundef 1) #8
  br label %26

20:                                               ; preds = %16
  %21 = tail call i32 @xmlStrcmp(ptr noundef %1, ptr noundef nonnull @.str.31) #8
  %.not17 = icmp eq i32 %21, 0
  br i1 %.not17, label %22, label %24

22:                                               ; preds = %20
  %23 = tail call ptr @json_object_new_boolean(i32 noundef 0) #8
  br label %26

24:                                               ; preds = %20
  %25 = tail call ptr @json_object_new_string(ptr noundef %1) #8
  br label %26

26:                                               ; preds = %18, %24, %22, %12
  %.013 = phi ptr [ %15, %12 ], [ %25, %24 ], [ %23, %22 ], [ %19, %18 ]
  %27 = icmp eq ptr %.013, null
  br i1 %27, label %28, label %29

28:                                               ; preds = %26
  tail call void (ptr, ...) @cli_errmsg(ptr noundef nonnull @.str.32, ptr noundef nonnull @.str.21) #8
  br label %31

29:                                               ; preds = %26
  %30 = tail call i32 @json_object_array_add(ptr noundef nonnull %4, ptr noundef nonnull %.013) #8
  br label %31

31:                                               ; preds = %2, %29, %28
  %.0 = phi i32 [ 20, %28 ], [ 0, %29 ], [ 20, %2 ]
  ret i32 %.0
}